target datalayout = "e-m:e-p270:32:32-p271:32:32-p272:64:64-i64:64-i128:128-f80:128-n8:16:32:64-S128"
target triple = "x86_64-pc-linux-gnu"

; Function Attrs: nounwind uwtable
define internal ptr @Pack3WordsAndSkip1SwapSwapFirst(ptr noundef %0, ptr noundef %1, ptr noundef %2, i32 noundef %3) #0 {
  %5 = alloca ptr, align 8
  %6 = alloca ptr, align 8
  %7 = alloca ptr, align 8
  %8 = alloca i32, align 4
  store ptr %0, ptr %5, align 8
  store ptr %1, ptr %6, align 8
  store ptr %2, ptr %7, align 8
  store i32 %3, ptr %8, align 4
  %9 = load ptr, ptr %6, align 8
  %10 = getelementptr inbounds i16, ptr %9, i64 2
  %11 = load i16, ptr %10, align 2
  %12 = load ptr, ptr %7, align 8
  store i16 %11, ptr %12, align 2
  %13 = load ptr, ptr %7, align 8
  %14 = getelementptr inbounds i8, ptr %13, i64 2
  store ptr %14, ptr %7, align 8
  %15 = load ptr, ptr %6, align 8
  %16 = getelementptr inbounds i16, ptr %15, i64 1
  %17 = load i16, ptr %16, align 2
  %18 = load ptr, ptr %7, align 8
  store i16 %17, ptr %18, align 2
  %19 = load ptr, ptr %7, align 8
  %20 = getelementptr inbounds i8, ptr %19, i64 2
  store ptr %20, ptr %7, align 8
  %21 = load ptr, ptr %6, align 8
  %22 = getelementptr inbounds i16, ptr %21, i64 0
  %23 = load i16, ptr %22, align 2
  %24 = load ptr, ptr %7, align 8
  store i16 %23, ptr %24, align 2
  %25 = load ptr, ptr %7, align 8
  %26 = getelementptr inbounds i8, ptr %25, i64 2
  store ptr %26, ptr %7, align 8
  %27 = load ptr, ptr %7, align 8
  %28 = getelementptr inbounds i8, ptr %27, i64 2
  store ptr %28, ptr %7, align 8
  %29 = load ptr, ptr %7, align 8
  ret ptr %29
}